target datalayout = "e-m:e-p270:32:32-p271:32:32-p272:64:64-i64:64-i128:128-f80:128-n8:16:32:64-S128"
target triple = "x86_64-unknown-linux-gnu"

%"struct.icu_75::RegularExpression" = type <{ i32, [4 x i8], ptr, ptr, ptr, i32, [4 x i8], ptr, ptr, i32, i8, [3 x i8] }>

; Function Attrs: mustprogress nounwind uwtable
define internal noundef signext i8 @_ZL9U_FAILURE10UErrorCode(i32 noundef %code) #0 {
entry:
  %code.addr = alloca i32, align 4
  store i32 %code, ptr %code.addr, align 4
  %0 = load i32, ptr %code.addr, align 4
  %cmp = icmp sgt i32 %0, 0
  %conv = zext i1 %cmp to i8
  ret i8 %conv
}

; Function Attrs: mustprogress nounwind uwtable
define internal noundef signext i8 @_ZL10validateREPKN6icu_7517RegularExpressionEaP10UErrorCode(ptr noundef %re, i8 noundef signext %requiresText, ptr noundef %status) #0 {
entry:
  %retval = alloca i8, align 1
  %re.addr = alloca ptr, align 8
  %requiresText.addr = alloca i8, align 1
  %status.addr = alloca ptr, align 8
  store ptr %re, ptr %re.addr, align 8
  store i8 %requiresText, ptr %requiresText.addr, align 1
  store ptr %status, ptr %status.addr, align 8
  %0 = load ptr, ptr %status.addr, align 8
  %1 = load i32, ptr %0, align 4
  %call = call noundef signext i8 @_ZL9U_FAILURE10UErrorCode(i32 noundef %1)
  %tobool = icmp ne i8 %call, 0
  br i1 %tobool, label %if.then, label %if.end

if.then:                                          ; preds = %entry
  store i8 0, ptr %retval, align 1
  br label %return

if.end:                                           ; preds = %entry
  %2 = load ptr, ptr %re.addr, align 8
  %cmp = icmp eq ptr %2, null
  br i1 %cmp, label %if.then2, label %lor.lhs.false

lor.lhs.false:                                    ; preds = %if.end
  %3 = load ptr, ptr %re.addr, align 8
  %fMagic = getelementptr inbounds %"struct.icu_75::RegularExpression", ptr %3, i32 0, i32 0
  %4 = load i32, ptr %fMagic, align 8
  %cmp1 = icmp ne i32 %4, 1919252592
  br i1 %cmp1, label %if.then2, label %if.end3

if.then2:                                         ; preds = %lor.lhs.false, %if.end
  %5 = load ptr, ptr %status.addr, align 8
  store i32 1, ptr %5, align 4
  store i8 0, ptr %retval, align 1
  br label %return

if.end3:                                          ; preds = %lor.lhs.false
  %6 = load i8, ptr %requiresText.addr, align 1
  %tobool4 = icmp ne i8 %6, 0
  br i1 %tobool4, label %land.lhs.true, label %if.end9

land.lhs.true:                                    ; preds = %if.end3
  %7 = load ptr, ptr %re.addr, align 8
  %fText = getelementptr inbounds %"struct.icu_75::RegularExpression", ptr %7, i32 0, i32 8
  %8 = load ptr, ptr %fText, align 8
  %cmp5 = icmp eq ptr %8, null
  br i1 %cmp5, label %land.lhs.true6, label %if.end9

land.lhs.true6:                                   ; preds = %land.lhs.true
  %9 = load ptr, ptr %re.addr, align 8
  %fOwnsText = getelementptr inbounds %"struct.icu_75::RegularExpression", ptr %9, i32 0, i32 10
  %10 = load i8, ptr %fOwnsText, align 4
  %tobool7 = icmp ne i8 %10, 0
  br i1 %tobool7, label %if.end9, label %if.then8

if.then8:                                         ; preds = %land.lhs.true6
  %11 = load ptr, ptr %status.addr, align 8
  store i32 66306, ptr %11, align 4
  store i8 0, ptr %retval, align 1
  br label %return

if.end9:                                          ; preds = %land.lhs.true6, %land.lhs.true, %if.end3
  store i8 1, ptr %retval, align 1
  br label %return

return:                                           ; preds = %if.end9, %if.then8, %if.then2, %if.then
  %12 = load i8, ptr %retval, align 1
  ret i8 %12
}

; Function Attrs: mustprogress uwtable
define signext i8 @uregex_find64_75(ptr noundef %regexp2, i64 noundef %startIndex, ptr noundef %status) #4 {
entry:
  %retval = alloca i8, align 1
  %regexp2.addr = alloca ptr, align 8
  %startIndex.addr = alloca i64, align 8
  %status.addr = alloca ptr, align 8
  %regexp = alloca ptr, align 8
  %result = alloca i8, align 1
  store ptr %regexp2, ptr %regexp2.addr, align 8
  store i64 %startIndex, ptr %startIndex.addr, align 8
  store ptr %status, ptr %status.addr, align 8
  %0 = load ptr, ptr %regexp2.addr, align 8
  store ptr %0, ptr %regexp, align 8
  store i8 0, ptr %result, align 1
  %1 = load ptr, ptr %regexp, align 8
  %2 = load ptr, ptr %status.addr, align 8
  %call = call noundef signext i8 @_ZL10validateREPKN6icu_7517RegularExpressionEaP10UErrorCode(ptr noundef %1, i8 noundef signext 1, ptr noundef %2)
  %conv = sext i8 %call to i32
  %cmp = icmp eq i32 %conv, 0
  br i1 %cmp, label %if.then, label %if.end

if.then:                                          ; preds = %entry
  %3 = load i8, ptr %result, align 1
  store i8 %3, ptr %retval, align 1
  br label %return

if.end:                                           ; preds = %entry
  %4 = load i64, ptr %startIndex.addr, align 8
  %cmp1 = icmp eq i64 %4, -1
  br i1 %cmp1, label %if.then2, label %if.else

if.then2:                                         ; preds = %if.end
  %5 = load ptr, ptr %regexp, align 8
  %fMatcher = getelementptr inbounds %"struct.icu_75::RegularExpression", ptr %5, i32 0, i32 7
  %6 = load ptr, ptr %fMatcher, align 8
  call void @_ZN6icu_7512RegexMatcher19resetPreserveRegionEv(ptr noundef nonnull align 8 dereferenceable(336) %6)
  %7 = load ptr, ptr %regexp, align 8
  %fMatcher3 = getelementptr inbounds %"struct.icu_75::RegularExpression", ptr %7, i32 0, i32 7
  %8 = load ptr, ptr %fMatcher3, align 8
  %9 = load ptr, ptr %status.addr, align 8
  %call4 = call noundef signext i8 @_ZN6icu_7512RegexMatcher4findER10UErrorCode(ptr noundef nonnull align 8 dereferenceable(336) %8, ptr noundef nonnull align 4 dereferenceable(4) %9)
  store i8 %call4, ptr %result, align 1
  br label %if.end7

if.else:                                          ; preds = %if.end
  %10 = load ptr, ptr %regexp, align 8
  %fMatcher5 = getelementptr inbounds %"struct.icu_75::RegularExpression", ptr %10, i32 0, i32 7
  %11 = load ptr, ptr %fMatcher5, align 8
  %12 = load i64, ptr %startIndex.addr, align 8
  %13 = load ptr, ptr %status.addr, align 8
  %call6 = call noundef signext i8 @_ZN6icu_7512RegexMatcher4findElR10UErrorCode(ptr noundef nonnull align 8 dereferenceable(336) %11, i64 noundef %12, ptr noundef nonnull align 4 dereferenceable(4) %13)
  store i8 %call6, ptr %result, align 1
  br label %if.end7

if.end7:                                          ; preds = %if.else, %if.then2
  %14 = load i8, ptr %result, align 1
  store i8 %14, ptr %retval, align 1
  br label %return

return:                                           ; preds = %if.end7, %if.then
  %15 = load i8, ptr %retval, align 1
  ret i8 %15
}